(dp1
S'Stratovarius'
p2
(lp3
S'death'
p4
aS'sacrifice'
p5
aS'peace'
p6
aS'storm'
p7
aS'dark'
p8
aS'scream'
p9
aS'pain'
p10
aS'blood'
p11
aS'love'
p12
aS'misery'
p13
asS'Queensryche'
p14
(lp15
S'universe'
p16
ag12
aS'anger'
p17
aS'hell'
p18
aS'heaven'
p19
aS'hate'
p20
aS'joy'
p21
aS'miracle'
p22
ag6
ag8
asS'White Zombie'
p23
(lp24
g4
aS'flesh'
p25
aS'god'
p26
aS'satan'
p27
ag22
aS'magic'
p28
aS'omen'
p29
ag5
aS'heart'
p30
aS'revenge'
p31
asS'Killswitch Engage'
p32
(lp33
g4
ag6
ag7
aS'spirit'
p34
ag8
ag10
ag11
ag25
ag12
aS'greed'
p35
asS'Metal Church'
p36
(lp37
g4
ag7
ag8
ag9
ag10
ag35
ag18
ag19
ag20
aS'soul'
p38
asS'Suicidal Tendencies'
p39
(lp40
g10
aS'poison'
p41
aS'struggle'
p42
aS'disease'
p43
ag5
ag12
ag17
ag20
ag21
aS'nature'
p44
asS'Mot\xf6rhead'
p45
(lp46
g4
ag5
ag7
ag8
ag9
ag10
ag11
ag12
ag35
ag31
asS'Stormtroopers of Death'
p47
(lp48
g4
ag31
ag22
aS'battle'
p49
ag5
aS'violence'
p50
ag29
ag25
ag42
ag10
asS'Scorpions'
p51
(lp52
g4
ag50
ag27
ag26
ag22
ag28
ag5
ag18
ag19
ag29
asS'Helloween'
p53
(lp54
g6
ag34
ag8
ag10
ag11
ag12
ag18
ag19
ag20
ag38
asS'Dio'
p55
(lp56
g8
ag12
ag22
ag28
ag16
ag30
ag42
ag4
ag11
ag17
asS'Iron Maiden'
p57
(lp58
g4
ag5
ag6
ag7
ag34
ag8
ag9
ag10
ag11
ag25
asS'Savatage'
p59
(lp60
g7
ag8
ag10
ag11
ag38
aS'ghost'
p61
aS'light'
p62
ag28
ag16
ag26
asS'Racer X'
p63
(lp64
g4
ag6
ag7
ag34
ag8
ag9
ag11
ag25
ag12
ag35
asS'Gamma Ray'
p65
(lp66
g4
ag50
ag7
ag34
ag10
ag11
ag12
ag35
ag17
ag18
asS'Pentagram'
p67
(lp68
g4
ag6
ag7
ag8
ag10
ag12
ag18
ag38
ag62
ag16
asS'Skid Row'
p69
(lp70
g49
ag26
ag9
ag27
ag18
ag19
ag22
ag28
ag4
ag12
asS'Morbid Angel'
p71
(lp72
g4
ag5
ag44
ag34
ag8
ag9
ag11
ag35
ag41
ag13
asS'Neurosis'
p73
(lp74
g4
ag44
ag34
ag8
ag10
ag11
ag38
ag49
ag61
ag62
asS'Arch Enemy'
p75
(lp76
g4
ag6
ag7
ag34
ag8
ag9
ag10
ag11
ag25
ag17
asS'Burzum'
p77
(lp78
g26
ag27
ag43
ag16
ag41
ag28
ag42
ag44
ag6
ag8
asS'Deep Purple'
p79
(lp80
g10
ag12
ag17
ag20
ag21
ag6
ag8
ag34
ag16
ag44
asS'At the Gates'
p81
(lp82
g4
ag34
ag8
ag9
ag10
ag11
ag25
ag12
ag31
ag13
asS'Overkill'
p83
(lp84
g34
ag8
ag9
ag10
ag11
ag12
ag41
ag18
ag20
ag38
asS'Candlemass'
p85
(lp86
g4
ag8
ag10
ag11
ag12
ag18
ag38
ag49
ag62
ag28
asS'Twisted Sister'
p87
(lp88
g7
ag25
ag12
ag19
ag20
ag62
ag30
ag26
ag21
ag11
asS'Rainbow'
p89
(lp90
g8
ag9
ag10
ag11
ag12
ag18
ag19
ag38
ag49
ag62
asS'Shadows Fall'
p91
(lp92
g4
ag8
ag25
ag12
ag41
ag18
ag38
ag49
ag61
ag62
asS'Nightwish'
p93
(lp94
g12
ag38
ag34
ag17
ag20
ag21
ag42
ag5
ag44
ag6
asS'Alice in Chains'
p95
(lp96
g16
ag25
ag18
ag19
ag5
ag22
ag34
ag4
ag35
ag31
asS'Manowar'
p97
(lp98
g4
ag34
ag8
ag11
ag18
ag19
ag20
ag38
ag49
ag62
asS'Dokken'
p99
(lp100
g6
ag34
ag8
ag10
ag11
ag12
ag41
ag38
ag62
ag16
asS'Venom'
p101
(lp102
g4
ag44
ag34
ag8
ag9
ag12
ag35
ag18
ag19
ag20
asS'Megadeth'
p103
(lp104
g10
ag26
ag27
ag5
ag12
ag17
ag20
ag21
ag25
ag22
asS'Edge of Sanity'
p105
(lp106
g4
ag5
ag6
ag34
ag8
ag9
ag10
ag11
ag25
ag17
asS'Living Colour'
p107
(lp108
g16
ag18
ag19
ag34
ag41
ag38
ag11
ag7
ag25
ag62
asS'Tool'
p109
(lp110
g4
ag20
ag22
ag44
ag12
ag17
ag21
ag42
ag5
ag29
asS'Cannible Corpse'
p111
(lp112
g4
ag50
ag5
ag6
ag8
ag9
ag10
ag11
ag25
ag17
asS'Meshuggah'
p113
(lp114
g8
ag10
ag12
ag42
ag17
ag20
ag21
ag44
ag5
ag4
asS'Iced Earth'
p115
(lp116
g4
ag50
ag5
ag6
ag34
ag8
ag10
ag11
ag25
ag12
asS'Metallica'
p117
(lp118
g4
ag8
ag41
ag31
ag13
ag18
ag20
ag49
ag62
ag26
asS'Possessed'
p119
(lp120
g4
ag7
ag9
ag10
ag11
ag17
ag18
ag19
ag38
ag16
asS'Opeth'
p121
(lp122
g7
ag8
ag10
ag11
ag25
ag12
ag61
ag62
ag26
ag27
asS'Anthrax'
p123
(lp124
g4
ag50
ag8
ag9
ag10
ag11
ag12
ag41
ag18
ag19
asS'Sepultura'
p125
(lp126
g50
ag7
ag9
ag10
ag11
ag12
ag35
ag38
ag49
ag16
asS'Machine Head'
p127
(lp128
g4
ag7
ag8
ag9
ag10
ag11
ag12
ag17
ag18
ag19
asS'Bruce Dickinson'
p129
(lp130
g4
ag8
ag11
ag25
ag12
ag41
ag17
ag13
ag19
ag38
asS'Cacophony'
p131
(lp132
g8
ag10
ag12
ag18
ag49
ag62
ag16
ag26
ag30
ag42
asS'Immortal'
p133
(lp134
g4
ag7
ag8
ag41
ag31
ag19
ag20
ag38
ag49
ag62
asS'Annihilator'
p135
(lp136
g4
ag50
ag5
ag9
ag10
ag11
ag17
ag31
ag18
ag19
asS'Fates Warning'
p137
(lp138
g5
ag6
ag7
ag8
ag9
ag12
ag62
ag16
ag10
ag4
asS'Symphony X'
p139
(lp140
g4
ag7
ag34
ag8
ag9
ag10
ag11
ag25
ag35
ag41
asS'Death'
p141
(lp142
g34
ag8
ag9
ag10
ag11
ag25
ag41
ag17
ag13
ag38
asS'Darkthrone'
p143
(lp144
g4
ag8
ag9
ag10
ag18
ag49
ag62
ag16
ag43
ag11
asS'Saxon'
p145
(lp146
g4
ag5
ag6
ag7
ag8
ag9
ag11
ag12
ag18
ag19
asS'Korn'
p147
(lp148
g20
ag12
ag17
ag21
ag5
ag50
ag6
ag8
ag31
ag18
asS'Emperor'
p149
(lp150
g4
ag5
ag44
ag6
ag7
ag34
ag8
ag9
ag10
ag11
asS'Exodus'
p151
(lp152
g4
ag50
ag8
ag10
ag11
ag25
ag12
ag18
ag20
ag38
asS'Fear Factory'
p153
(lp154
g4
ag34
ag8
ag10
ag11
ag35
ag17
ag31
ag20
ag38
asS'Blind Guardian'
p155
(lp156
g4
ag5
ag7
ag34
ag8
ag10
ag11
ag12
ag31
ag13
asS'Children of Bodom'
p157
(lp158
g4
ag50
ag9
ag10
ag11
ag12
ag18
ag19
ag20
ag16
asS'Mastodon'
p159
(lp160
g4
ag34
ag8
ag9
ag11
ag25
ag12
ag38
ag62
ag16
asS'Faith No More'
p161
(lp162
g4
ag11
ag12
ag31
ag18
ag62
ag30
ag10
ag42
ag9
asS'Slipknot'
p163
(lp164
g6
ag10
ag11
ag25
ag20
ag12
ag17
ag21
ag4
ag42
asS"King's X"
p165
(lp166
g34
ag8
ag9
ag10
ag11
ag18
ag19
ag38
ag62
ag28
asS'Bathory'
p167
(lp168
g4
ag5
ag44
ag7
ag8
ag9
ag10
ag11
ag25
ag17
asS'Nevermore'
p169
(lp170
g4
ag7
ag8
ag9
ag10
ag11
ag25
ag12
ag41
ag18
asS'Dimmu Borgir'
p171
(lp172
g5
ag44
ag7
ag34
ag8
ag11
ag18
ag38
ag49
ag62
asS'Judas Priest'
p173
(lp174
g4
ag6
ag7
ag8
ag10
ag11
ag12
ag17
ag31
ag18
asS'Danzig'
p175
(lp176
g4
ag34
ag8
ag10
ag11
ag12
ag17
ag18
ag20
ag62
asS'Pantera'
p177
(lp178
g49
ag27
ag43
ag26
ag8
ag7
ag25
ag31
ag28
ag44
asS'Napalm Death'
p179
(lp180
g4
ag6
ag8
ag9
ag25
ag12
ag41
ag17
ag13
ag19
asS'Hammerfall'
p181
(lp182
g4
ag6
ag34
ag8
ag9
ag10
ag11
ag17
ag13
ag18
asS'Type O Negative'
p183
(lp184
g4
ag7
ag8
ag9
ag10
ag11
ag12
ag18
ag19
ag20
asS'Soundgarden'
p185
(lp186
g4
ag34
ag10
ag11
ag12
ag62
ag22
ag30
ag42
ag9
asS'Dream Theater'
p187
(lp188
g4
ag34
ag8
ag9
ag10
ag11
ag12
ag18
ag19
ag20
asS'Celtic Frost'
p189
(lp190
g4
ag5
ag8
ag10
ag11
ag25
ag12
ag17
ag18
ag19
asS'Amon Amarth'
p191
(lp192
g4
ag5
ag6
ag7
ag34
ag8
ag9
ag10
ag11
ag25
asS'Van Halen'
p193
(lp194
g12
ag17
ag20
ag21
ag6
ag8
ag44
ag11
ag13
ag43
asS'King Diamond'
p195
(lp196
g34
ag8
ag9
ag10
ag11
ag18
ag19
ag38
ag62
ag28
asS'Diamond Head'
p197
(lp198
g7
ag34
ag9
ag10
ag12
ag18
ag19
ag20
ag38
ag49
asS'Mercyful Fate'
p199
(lp200
g5
ag8
ag9
ag10
ag11
ag12
ag41
ag18
ag19
ag38
asS'W A S P'
p201
(lp202
g4
ag12
ag27
ag30
ag26
ag17
ag20
ag21
ag8
ag22
asS'Carcass'
p203
(lp204
g4
ag34
ag8
ag9
ag10
ag11
ag25
ag12
ag18
ag20
asS'Voivod'
p205
(lp206
g4
ag5
ag7
ag34
ag8
ag9
ag38
ag49
ag61
ag62
asS'Cradle of Filth'
p207
(lp208
g4
ag5
ag44
ag7
ag34
ag8
ag9
ag10
ag11
ag25
asS'Kreator'
p209
(lp210
g4
ag50
ag44
ag7
ag34
ag8
ag9
ag10
ag11
ag12
asS'Isis'
p211
(lp212
g8
ag11
ag25
ag41
ag38
ag61
ag62
ag16
ag42
ag30
asS'System of a Down'
p213
(lp214
g42
ag5
ag6
ag8
ag50
ag31
ag49
ag10
ag12
ag17
asS'Testament'
p215
(lp216
g4
ag7
ag8
ag9
ag10
ag11
ag35
ag18
ag19
ag20
asS'Kamelot'
p217
(lp218
g4
ag50
ag6
ag7
ag34
ag8
ag10
ag11
ag25
ag12
asS'Slayer'
p219
(lp220
g4
ag50
ag7
ag8
ag9
ag10
ag11
ag25
ag41
ag18
asS'In Flames'
p221
(lp222
g6
ag7
ag8
ag10
ag12
ag38
ag49
ag61
ag62
ag16
asS'Black Sabbath'
p223
(lp224
g4
ag34
ag8
ag9
ag10
ag25
ag12
ag17
ag13
ag18
asS'M\xf6tley Cr\xfce'
p225
(lp226
g18
ag9
ag19
ag28
ag26
ag27
ag22
ag42
ag4
ag5
asS'Ozzy Osbourne'
p227
(lp228
g4
ag50
ag6
ag7
ag8
ag9
ag10
ag11
ag12
ag35
asS'Accept'
p229
(lp230
g4
ag8
ag10
ag11
ag25
ag12
ag13
ag18
ag19
ag20
asS'Mayhem'
p231
(lp232
g4
ag8
ag9
ag12
ag20
ag62
ag16
ag26
ag28
ag61
asS'Yngwie J'
p233
(lp234
g6
ag49
ag62
ag27
ag42
ag26
ag12
ag17
ag20
ag21
asS'Sleep'
p235
(lp236
g19
ag38
ag26
ag62
ag34
ag11
ag27
ag18
ag22
ag4
as.