(dp1
S'Stratovarius'
p2
(lp3
Vpower metal
p4
aVsymphonic metal
p5
aVprogressive metal
p6
aVheavy metal
p7
aVneo-classical metal
p8
asS'Queensryche'
p9
(lp10
Vheavy metal
p11
aVprogressive metal
p12
aVhard rock
p13
asS'White Zombie'
p14
(lp15
Vheavy metal
p16
aVindustrial metal
p17
aVgroove metal
p18
aValternative metal
p19
aVnoise rock
p20
asS'Killswitch Engage'
p21
(lp22
Vmetalcore
p23
asS'Metal Church'
p24
(lp25
Vheavy metal
p26
aVthrash metal
p27
aVspeed metal
p28
aVpower metal
p29
asS'Suicidal Tendencies'
p30
(lp31
Vcrossover&#160;thrash
p32
aVhardcore punk
p33
aVfunk metal
p34
asS'Mot\xf6rhead'
p35
(lp36
Vheavy metal
p37
asS'Stormtroopers of Death'
p38
(lp39
Vcrossover thrash
p40
asS'Scorpions'
p41
(lp42
S'Unknown'
p43
asS'Helloween'
p44
(lp45
Vpower metal
p46
aVspeed metal
p47
aVheavy metal
p48
asS'Dio'
p49
(lp50
g43
asS'Iron Maiden'
p51
(lp52
Vheavy metal
p53
asS'Savatage'
p54
(lp55
Vheavy metal
p56
aVpower metal
p57
aVprogressive metal
p58
asS'Racer X'
p59
(lp60
Vheavy metal
p61
aVspeed metal
p62
asS'Gamma Ray'
p63
(lp64
Vpower metal
p65
aVspeed metal
p66
aVheavy metal
p67
asS'Pentagram'
p68
(lp69
Vdoom metal
p70
aVheavy metal
p71
aVstoner metal
p72
asS'Skid Row'
p73
(lp74
Vheavy metal
p75
aVglam metal
p76
aVhard rock
p77
asS'Morbid Angel'
p78
(lp79
Vdeath metal
p80
asS'Darkthrone'
p81
(lp82
Vdeath metal
p83
aVblack metal
p84
aVcrust punk
p85
aVheavy metal
p86
asS'Arch Enemy'
p87
(lp88
Vmelodic death metal
p89
asS'Burzum'
p90
(lp91
Vblack metal
p92
aVfolk metal
p93
aVdark ambient
p94
asS'Deep Purple'
p95
(lp96
Vhard rock
p97
aVheavy metal
p98
aVpsychedelic rock
p99
aVblues rock
p100
aVprogressive rock
p101
asS'At the Gates'
p102
(lp103
Vdeath metal
p104
aVmelodic death metal
p105
aVthrash metal
p106
asS'Overkill'
p107
(lp108
Vthrash metal
p109
aVspeed metal
p110
asS'Anthrax'
p111
(lp112
Vheavy metal
p113
aVthrash metal
p114
aVgroove metal
p115
aValternative metal
p116
aVspeed metal
p117
asS'Twisted Sister'
p118
(lp119
Vheavy metal
p120
aVhard rock
p121
aVglam metal
p122
asS'Rainbow'
p123
(lp124
Vhard rock
p125
aVheavy metal
p126
asS'Shadows Fall'
p127
(lp128
Vthrash metal
p129
aVheavy metal
p130
aVmelodic metalcore
p131
aVmelodic death metal
p132
asS'Nightwish'
p133
(lp134
Vmusical style
p135
asS'Alice in Chains'
p136
(lp137
Valternative metal
p138
aValternative rock
p139
aVgrunge
p140
aVheavy metal
p141
asS'Manowar'
p142
(lp143
Vheavy metal
p144
aVpower metal
p145
aVspeed metal
p146
asS'Dokken'
p147
(lp148
Vheavy metal
p149
aVhard rock
p150
aVglam metal
p151
asS'Venom'
p152
(lp153
Vthrash metal
p154
aVblack metal
p155
aVspeed metal
p156
aVheavy metal
p157
asS'Megadeth'
p158
(lp159
Vheavy metal
p160
aVthrash metal
p161
aVspeed metal
p162
aVhard rock
p163
asS'Edge of Sanity'
p164
(lp165
Vdeath metal
p166
aVmelodic death metal
p167
aVprogressive death metal
p168
asS'Living Colour'
p169
(lp170
Vfunk metal
p171
aValternative metal
p172
aVheavy metal
p173
aVhard rock
p174
aVexperimental rock
p175
aVneo-psychedelia
p176
asS'Tool'
p177
(lp178
Valternative metal
p179
aVart rock
p180
aVprogressive metal
p181
aVprogressive rock
p182
asS'Cannible Corpse'
p183
(lp184
Vdeath metal
p185
asS'Mayhem'
p186
(lp187
Vblack metal
p188
asS'Meshuggah'
p189
(lp190
Vextreme metal
p191
aVexperimental metal
p192
aVprogressive metal
p193
asS'Iced Earth'
p194
(lp195
Vheavy metal
p196
aVpower metal
p197
aVthrash metal
p198
aVprogressive metal
p199
asS'Metallica'
p200
(lp201
Vheavy metal
p202
aVthrash metal
p203
aVhard rock
p204
aVspeed metal
p205
asS'Possessed'
p206
(lp207
Vdeath metal
p208
aVthrash metal
p209
asS'Opeth'
p210
(lp211
Vprogressive death metal
p212
aVprogressive metal
p213
aVprogressive rock
p214
asS'Candlemass'
p215
(lp216
Vepic doom metal
p217
asS'Sepultura'
p218
(lp219
Vgroove metal
p220
aVthrash metal
p221
aVdeath metal
p222
aValternative metal
p223
asS'Emperor'
p224
(lp225
g43
asS'Bruce Dickinson'
p226
(lp227
Vheavy metal
p228
aVhard rock
p229
asS'Cacophony'
p230
(lp231
Vheavy metal
p232
aVneo-classical metal
p233
aVinstrumental rock
p234
asS'Immortal'
p235
(lp236
g43
asS'Annihilator'
p237
(lp238
Vthrash metal
p239
aVspeed metal
p240
aVprogressive metal
p241
aVgroove metal
p242
asS'Fates Warning'
p243
(lp244
Vprogressive metal
p245
asS'Symphony X'
p246
(lp247
Vprogressive metal
p248
aVneoclassical metal
p249
aVsymphonic metal
p250
asS'Death'
p251
(lp252
Vdeath metal
p253
aVtechnical death metal
p254
aVprogressive metal
p255
asS'Neurosis'
p256
(lp257
Vpost-metal
p258
aVsludge metal
p259
aVdoom metal
p260
aVindustrial metal
p261
aVexperimental
p262
aVavant-garde metal
p263
aVhardcore punk
p264
asS'Saxon'
p265
(lp266
Vheavy metal
p267
asS'Korn'
p268
(lp269
Vnu metal
p270
aValternative metal
p271
asS'Machine Head'
p272
(lp273
Vgroove metal
p274
aVthrash metal
p275
aVnu metal
p276
asS'Exodus'
p277
(lp278
Vthrash metal
p279
asS'Fear Factory'
p280
(lp281
Vindustrial metal
p282
aVgroove metal
p283
aVthrash metal
p284
aVdeath metal
p285
asS'Blind Guardian'
p286
(lp287
Vpower metal
p288
aVheavy metal
p289
aVspeed metal
p290
aVprogressive metal
p291
asS'Children of Bodom'
p292
(lp293
Vmelodic death metal
p294
aVpower metal
p295
aVthrash metal
p296
asS'Mastodon'
p297
(lp298
Vsludge metal
p299
aVprogressive metal
p300
asS'Faith No More'
p301
(lp302
Valternative metal
p303
aVexperimental rock
p304
aVfunk metal
p305
asS'Slipknot'
p306
(lp307
g43
asS"King's X"
p308
(lp309
Vhard rock
p310
aVprogressive metal
p311
asS'Bathory'
p312
(lp313
Vblack metal
p314
aVthrash metal
p315
aVviking metal
p316
asS'Nevermore'
p317
(lp318
Vpop rock
p319
aVindie rock
p320
aVelectro rock
p321
asS'Dimmu Borgir'
p322
(lp323
Vblack metal
p324
aVsymphonic metal
p325
asS'Judas Priest'
p326
(lp327
Vheavy metal
p328
aVspeed metal
p329
asS'Danzig'
p330
(lp331
Vheavy metal
p332
aVhard rock
p333
aVblues rock
p334
aVdoom metal
p335
aVgothic metal
p336
asS'Pantera'
p337
(lp338
Vgroove metal
p339
aVthrash metal
p340
aVheavy metal
p341
aVglam metal
p342
asS'Napalm Death'
p343
(lp344
Vgrindcore
p345
aVdeath metal
p346
asS'Hammerfall'
p347
(lp348
Vheavy metal
p349
aVspeed metal
p350
aVpower metal
p351
asS'Type O Negative'
p352
(lp353
Vgothic metal
p354
asS'Soundgarden'
p355
(lp356
Valternative metal
p357
aVgrunge
p358
aValternative rock
p359
aVheavy metal
p360
asS'Dream Theater'
p361
(lp362
Vprogressive metal
p363
aVprogressive rock
p364
asS'Celtic Frost'
p365
(lp366
Vextreme metal
p367
aVgenre
p368
asS'Amon Amarth'
p369
(lp370
Vmelodic death metal
p371
asS'Van Halen'
p372
(lp373
Vhard rock
p374
aVheavy metal
p375
asS'King Diamond'
p376
(lp377
Vheavy metal
p378
asS'Accept'
p379
(lp380
Vheavy metal
p381
aVspeed metal
p382
aVthrash metal
p383
aVpower metal
p384
asS'Mercyful Fate'
p385
(lp386
Vheavy metal
p387
aVspeed metal
p388
aVblack metal
p389
asS'W A S P'
p390
(lp391
Vheavy metal
p392
aVhard rock
p393
aVshock rock
p394
asS'Carcass'
p395
(lp396
Vgrindcore
p397
aVgoregrind
p398
aVdeath metal
p399
aVmelodic death metal
p400
asS'Voivod'
p401
(lp402
Vprogressive metal
p403
aVthrash metal
p404
asS'Cradle of Filth'
p405
(lp406
Vextreme metal
p407
asS'Kreator'
p408
(lp409
Vthrash metal
p410
aVindustrial metal
p411
aVgothic metal
p412
asS'Isis'
p413
(lp414
Vpost-metal
p415
aVsludge metal
p416
aVdoom metal
p417
aVprogressive metal
p418
asS'System of a Down'
p419
(lp420
Valternative metal
p421
aVprogressive rock
p422
aVhard rock
p423
aVexperimental
p424
asS'Testament'
p425
(lp426
Vthrash metal
p427
aVheavy metal
p428
asS'Kamelot'
p429
(lp430
Vpower metal
p431
aVsymphonic metal
p432
aVprogressive metal
p433
aVneoclassical metal
p434
asS'Slayer'
p435
(lp436
Vthrash metal
p437
asS'In Flames'
p438
(lp439
Vmelodic death metal
p440
aValternative metal
p441
asS'Black Sabbath'
p442
(lp443
Vheavy metal
p444
asS'Ozzy Osbourne'
p445
(lp446
Vheavy metal
p447
aVhard rock
p448
aVblues rock
p449
asS'Diamond Head'
p450
(lp451
Vheavy metal
p452
aVhard rock
p453
aVspeed metal
p454
aVrock and roll
p455
asS'M\xf6tley Cr\xfce'
p456
(lp457
Vheavy metal
p458
aVglam metal
p459
aVhard rock
p460
asS'Yngwie J'
p461
(lp462
Vheavy metal
p463
aVglam metal
p464
aVneo-classical metal
p465
aVspeed metal
p466
aVpower metal
p467
aVhard rock
p468
aVinstrumental rock
p469
asS'Sleep'
p470
(lp471
Vdoom metal
p472
aVstoner metal
p473
as.